target datalayout = "e-m:e-p270:32:32-p271:32:32-p272:64:64-i64:64-i128:128-f80:128-n8:16:32:64-S128"
target triple = "x86_64-pc-linux-gnu"

%struct.SDL_Haptic = type { i32, ptr, ptr, i32, i32, i32, i32, ptr, i32, i32, %union.SDL_HapticEffect, ptr }
%union.SDL_HapticEffect = type { %struct.SDL_HapticCustom, [16 x i8] }
%struct.SDL_HapticCustom = type { i16, %struct.SDL_HapticDirection, i32, i16, i16, i16, i8, i16, i16, ptr, i16, i16, i16, i16 }
%struct.SDL_HapticDirection = type { i8, [3 x i32] }

@.str = private unnamed_addr constant [26 x i8] c"Parameter '%s' is invalid\00", align 1
@.str.1 = private unnamed_addr constant [7 x i8] c"haptic\00", align 1
@.str.12 = private unnamed_addr constant [46 x i8] c"Haptic: Device does not support setting gain.\00", align 1
@.str.13 = private unnamed_addr constant [40 x i8] c"Haptic: Gain must be between 0 and 100.\00", align 1
@.str.14 = private unnamed_addr constant [20 x i8] c"SDL_HAPTIC_GAIN_MAX\00", align 1

; Function Attrs: nounwind uwtable
define hidden zeroext i1 @SDL_SetHapticGain_REAL(ptr noundef %0, i32 noundef %1) #0 {
  %3 = alloca i1, align 1
  %4 = alloca ptr, align 8
  %5 = alloca i32, align 4
  %6 = alloca ptr, align 8
  %7 = alloca i32, align 4
  %8 = alloca i32, align 4
  %9 = alloca i32, align 4
  store ptr %0, ptr %4, align 8
  store i32 %1, ptr %5, align 4
  call void @llvm.lifetime.start.p0(i64 8, ptr %6) #7
  call void @llvm.lifetime.start.p0(i64 4, ptr %7) #7
  call void @llvm.lifetime.start.p0(i64 4, ptr %8) #7
  %10 = load ptr, ptr %4, align 8
  %11 = call zeroext i1 @SDL_ObjectValid(ptr noundef %10, i32 noundef 6)
  br i1 %11, label %14, label %12

12:                                               ; preds = %2
  %13 = call zeroext i1 (ptr, ...) @SDL_SetError_REAL(ptr noundef @.str, ptr noundef @.str.1)
  store i1 false, ptr %3, align 1
  store i32 1, ptr %9, align 4
  br label %63

14:                                               ; preds = %2
  %15 = load ptr, ptr %4, align 8
  %16 = getelementptr inbounds nuw %struct.SDL_Haptic, ptr %15, i32 0, i32 5
  %17 = load i32, ptr %16, align 8
  %18 = and i32 %17, 65536
  %19 = icmp ne i32 %18, 0
  br i1 %19, label %22, label %20

20:                                               ; preds = %14
  %21 = call zeroext i1 (ptr, ...) @SDL_SetError_REAL(ptr noundef @.str.12)
  store i1 %21, ptr %3, align 1
  store i32 1, ptr %9, align 4
  br label %63

22:                                               ; preds = %14
  %23 = load i32, ptr %5, align 4
  %24 = icmp slt i32 %23, 0
  br i1 %24, label %28, label %25

25:                                               ; preds = %22
  %26 = load i32, ptr %5, align 4
  %27 = icmp sgt i32 %26, 100
  br i1 %27, label %28, label %30

28:                                               ; preds = %25, %22
  %29 = call zeroext i1 (ptr, ...) @SDL_SetError_REAL(ptr noundef @.str.13)
  store i1 %29, ptr %3, align 1
  store i32 1, ptr %9, align 4
  br label %63

30:                                               ; preds = %25
  %31 = call ptr @SDL_getenv_REAL(ptr noundef @.str.14)
  store ptr %31, ptr %6, align 8
  %32 = load ptr, ptr %6, align 8
  %33 = icmp ne ptr %32, null
  br i1 %33, label %34, label %50

34:                                               ; preds = %30
  %35 = load ptr, ptr %6, align 8
  %36 = call i32 @SDL_atoi_REAL(ptr noundef %35)
  store i32 %36, ptr %8, align 4
  %37 = load i32, ptr %8, align 4
  %38 = icmp slt i32 %37, 0
  br i1 %38, label %39, label %40

39:                                               ; preds = %34
  store i32 0, ptr %8, align 4
  br label %45

40:                                               ; preds = %34
  %41 = load i32, ptr %8, align 4
  %42 = icmp sgt i32 %41, 100
  br i1 %42, label %43, label %44

43:                                               ; preds = %40
  store i32 100, ptr %8, align 4
  br label %44

44:                                               ; preds = %43, %40
  br label %45

45:                                               ; preds = %44, %39
  %46 = load i32, ptr %5, align 4
  %47 = load i32, ptr %8, align 4
  %48 = mul nsw i32 %46, %47
  %49 = sdiv i32 %48, 100
  store i32 %49, ptr %7, align 4
  br label %52

50:                                               ; preds = %30
  %51 = load i32, ptr %5, align 4
  store i32 %51, ptr %7, align 4
  br label %52

52:                                               ; preds = %50, %45
  %53 = load ptr, ptr %4, align 8
  %54 = call zeroext i1 @SDL_HIDAPI_HapticIsHidapi(ptr noundef %53)
  br i1 %54, label %55, label %59

55:                                               ; preds = %52
  %56 = load ptr, ptr %4, align 8
  %57 = load i32, ptr %7, align 4
  %58 = call zeroext i1 @SDL_HIDAPI_HapticSetGain(ptr noundef %56, i32 noundef %57)
  store i1 %58, ptr %3, align 1
  store i32 1, ptr %9, align 4
  br label %63

59:                                               ; preds = %52
  %60 = load ptr, ptr %4, align 8
  %61 = load i32, ptr %7, align 4
  %62 = call zeroext i1 @SDL_SYS_HapticSetGain(ptr noundef %60, i32 noundef %61)
  store i1 %62, ptr %3, align 1
  store i32 1, ptr %9, align 4
  br label %63

63:                                               ; preds = %59, %55, %28, %20, %12
  call void @llvm.lifetime.end.p0(i64 4, ptr %8) #7
  call void @llvm.lifetime.end.p0(i64 4, ptr %7) #7
  call void @llvm.lifetime.end.p0(i64 8, ptr %6) #7
  %64 = load i1, ptr %3, align 1
  ret i1 %64
}